target datalayout = "e-m:e-p270:32:32-p271:32:32-p272:64:64-i64:64-i128:128-f80:128-n8:16:32:64-S128"
target triple = "x86_64-pc-linux-gnu"

%struct.arc = type { i32, i16, ptr, ptr, ptr, ptr, ptr, ptr, ptr, ptr }
%struct.state = type { i32, i8, i32, i32, ptr, ptr, ptr, ptr, ptr }

@InterruptPending = external global i32, align 4

; Function Attrs: nounwind uwtable
define internal void @newarc(ptr noundef %0, i32 noundef %1, i16 noundef signext %2, ptr noundef %3, ptr noundef %4) #0 {
  %6 = alloca ptr, align 8
  %7 = alloca i32, align 4
  %8 = alloca i16, align 2
  %9 = alloca ptr, align 8
  %10 = alloca ptr, align 8
  %11 = alloca ptr, align 8
  %12 = alloca i32, align 4
  store ptr %0, ptr %6, align 8
  store i32 %1, ptr %7, align 4
  store i16 %2, ptr %8, align 2
  store ptr %3, ptr %9, align 8
  store ptr %4, ptr %10, align 8
  call void @llvm.lifetime.start.p0(i64 8, ptr %11) #12
  br label %13

13:                                               ; preds = %5
  %14 = load volatile i32, ptr @InterruptPending, align 4
  %15 = icmp ne i32 %14, 0
  %16 = zext i1 %15 to i32
  %17 = sext i32 %16 to i64
  %18 = call i64 @llvm.expect.i64(i64 %17, i64 0)
  %19 = icmp ne i64 %18, 0
  br i1 %19, label %20, label %21

20:                                               ; preds = %13
  call void @ProcessInterrupts()
  br label %21

21:                                               ; preds = %20, %13
  br label %22

22:                                               ; preds = %21
  br label %23

23:                                               ; preds = %22
  %24 = load ptr, ptr %9, align 8
  %25 = getelementptr inbounds nuw %struct.state, ptr %24, i32 0, i32 3
  %26 = load i32, ptr %25, align 4
  %27 = load ptr, ptr %10, align 8
  %28 = getelementptr inbounds nuw %struct.state, ptr %27, i32 0, i32 2
  %29 = load i32, ptr %28, align 8
  %30 = icmp sle i32 %26, %29
  br i1 %30, label %31, label %65

31:                                               ; preds = %23
  %32 = load ptr, ptr %9, align 8
  %33 = getelementptr inbounds nuw %struct.state, ptr %32, i32 0, i32 5
  %34 = load ptr, ptr %33, align 8
  store ptr %34, ptr %11, align 8
  br label %35

35:                                               ; preds = %60, %31
  %36 = load ptr, ptr %11, align 8
  %37 = icmp ne ptr %36, null
  br i1 %37, label %38, label %64

38:                                               ; preds = %35
  %39 = load ptr, ptr %11, align 8
  %40 = getelementptr inbounds nuw %struct.arc, ptr %39, i32 0, i32 3
  %41 = load ptr, ptr %40, align 8
  %42 = load ptr, ptr %10, align 8
  %43 = icmp eq ptr %41, %42
  br i1 %43, label %44, label %59

44:                                               ; preds = %38
  %45 = load ptr, ptr %11, align 8
  %46 = getelementptr inbounds nuw %struct.arc, ptr %45, i32 0, i32 1
  %47 = load i16, ptr %46, align 4
  %48 = sext i16 %47 to i32
  %49 = load i16, ptr %8, align 2
  %50 = sext i16 %49 to i32
  %51 = icmp eq i32 %48, %50
  br i1 %51, label %52, label %59

52:                                               ; preds = %44
  %53 = load ptr, ptr %11, align 8
  %54 = getelementptr inbounds nuw %struct.arc, ptr %53, i32 0, i32 0
  %55 = load i32, ptr %54, align 8
  %56 = load i32, ptr %7, align 4
  %57 = icmp eq i32 %55, %56
  br i1 %57, label %58, label %59

58:                                               ; preds = %52
  store i32 1, ptr %12, align 4
  br label %105

59:                                               ; preds = %52, %44, %38
  br label %60

60:                                               ; preds = %59
  %61 = load ptr, ptr %11, align 8
  %62 = getelementptr inbounds nuw %struct.arc, ptr %61, i32 0, i32 4
  %63 = load ptr, ptr %62, align 8
  store ptr %63, ptr %11, align 8
  br label %35, !llvm.loop !34

64:                                               ; preds = %35
  br label %99

65:                                               ; preds = %23
  %66 = load ptr, ptr %10, align 8
  %67 = getelementptr inbounds nuw %struct.state, ptr %66, i32 0, i32 4
  %68 = load ptr, ptr %67, align 8
  store ptr %68, ptr %11, align 8
  br label %69

69:                                               ; preds = %94, %65
  %70 = load ptr, ptr %11, align 8
  %71 = icmp ne ptr %70, null
  br i1 %71, label %72, label %98

72:                                               ; preds = %69
  %73 = load ptr, ptr %11, align 8
  %74 = getelementptr inbounds nuw %struct.arc, ptr %73, i32 0, i32 2
  %75 = load ptr, ptr %74, align 8
  %76 = load ptr, ptr %9, align 8
  %77 = icmp eq ptr %75, %76
  br i1 %77, label %78, label %93

78:                                               ; preds = %72
  %79 = load ptr, ptr %11, align 8
  %80 = getelementptr inbounds nuw %struct.arc, ptr %79, i32 0, i32 1
  %81 = load i16, ptr %80, align 4
  %82 = sext i16 %81 to i32
  %83 = load i16, ptr %8, align 2
  %84 = sext i16 %83 to i32
  %85 = icmp eq i32 %82, %84
  br i1 %85, label %86, label %93

86:                                               ; preds = %78
  %87 = load ptr, ptr %11, align 8
  %88 = getelementptr inbounds nuw %struct.arc, ptr %87, i32 0, i32 0
  %89 = load i32, ptr %88, align 8
  %90 = load i32, ptr %7, align 4
  %91 = icmp eq i32 %89, %90
  br i1 %91, label %92, label %93

92:                                               ; preds = %86
  store i32 1, ptr %12, align 4
  br label %105

93:                                               ; preds = %86, %78, %72
  br label %94

94:                                               ; preds = %93
  %95 = load ptr, ptr %11, align 8
  %96 = getelementptr inbounds nuw %struct.arc, ptr %95, i32 0, i32 6
  %97 = load ptr, ptr %96, align 8
  store ptr %97, ptr %11, align 8
  br label %69, !llvm.loop !35

98:                                               ; preds = %69
  br label %99

99:                                               ; preds = %98, %64
  %100 = load ptr, ptr %6, align 8
  %101 = load i32, ptr %7, align 4
  %102 = load i16, ptr %8, align 2
  %103 = load ptr, ptr %9, align 8
  %104 = load ptr, ptr %10, align 8
  call void @createarc(ptr noundef %100, i32 noundef %101, i16 noundef signext %102, ptr noundef %103, ptr noundef %104)
  store i32 0, ptr %12, align 4
  br label %105

105:                                              ; preds = %99, %92, %58
  call void @llvm.lifetime.end.p0(i64 8, ptr %11) #12
  %106 = load i32, ptr %12, align 4
  switch i32 %106, label %108 [
    i32 0, label %107
    i32 1, label %107
  ]

107:                                              ; preds = %105, %105
  ret void

108:                                              ; preds = %105
  unreachable
}

; Function Attrs: nounwind uwtable
define internal void @cloneouts(ptr noundef %0, ptr noundef %1, ptr noundef %2, ptr noundef %3, i32 noundef %4) #0 {
  %6 = alloca ptr, align 8
  %7 = alloca ptr, align 8
  %8 = alloca ptr, align 8
  %9 = alloca ptr, align 8
  %10 = alloca i32, align 4
  %11 = alloca ptr, align 8
  store ptr %0, ptr %6, align 8
  store ptr %1, ptr %7, align 8
  store ptr %2, ptr %8, align 8
  store ptr %3, ptr %9, align 8
  store i32 %4, ptr %10, align 4
  call void @llvm.lifetime.start.p0(i64 8, ptr %11) #12
  %12 = load ptr, ptr %7, align 8
  %13 = getelementptr inbounds nuw %struct.state, ptr %12, i32 0, i32 5
  %14 = load ptr, ptr %13, align 8
  store ptr %14, ptr %11, align 8
  br label %15

15:                                               ; preds = %26, %5
  %16 = load ptr, ptr %11, align 8
  %17 = icmp ne ptr %16, null
  br i1 %17, label %18, label %30

18:                                               ; preds = %15
  %19 = load ptr, ptr %6, align 8
  %20 = load i32, ptr %10, align 4
  %21 = load ptr, ptr %11, align 8
  %22 = getelementptr inbounds nuw %struct.arc, ptr %21, i32 0, i32 1
  %23 = load i16, ptr %22, align 4
  %24 = load ptr, ptr %8, align 8
  %25 = load ptr, ptr %9, align 8
  call void @newarc(ptr noundef %19, i32 noundef %20, i16 noundef signext %23, ptr noundef %24, ptr noundef %25)
  br label %26

26:                                               ; preds = %18
  %27 = load ptr, ptr %11, align 8
  %28 = getelementptr inbounds nuw %struct.arc, ptr %27, i32 0, i32 4
  %29 = load ptr, ptr %28, align 8
  store ptr %29, ptr %11, align 8
  br label %15, !llvm.loop !72

30:                                               ; preds = %15
  call void @llvm.lifetime.end.p0(i64 8, ptr %11) #12
  ret void
}