; Function Attrs: nounwind uwtable
define internal fastcc void @cloneouts(ptr noundef captures(none) %0, ptr noundef readonly captures(none) %1, ptr noundef %2, ptr noundef %3, i32 noundef range(i32 97, 115) %4) unnamed_addr #0 {
  %.0.in9 = getelementptr inbounds nuw i8, ptr %1, i64 24
  %.010 = load ptr, ptr %.0.in9, align 8
  %.not11 = icmp eq ptr %.010, null
  br i1 %.not11, label %._crit_edge, label %.lr.ph

.lr.ph:                                           ; preds = %5
  %6 = getelementptr inbounds nuw i8, ptr %2, i64 12
  %7 = getelementptr inbounds nuw i8, ptr %3, i64 8
  %.0.in30.i = getelementptr inbounds nuw i8, ptr %2, i64 24
  %8 = getelementptr inbounds nuw i8, ptr %3, i64 16
  br label %9

9:                                                ; preds = %.lr.ph, %newarc.exit
  %.012 = phi ptr [ %.010, %.lr.ph ], [ %.0, %newarc.exit ]
  %10 = getelementptr inbounds nuw i8, ptr %.012, i64 4
  %11 = load i16, ptr %10, align 4
  %12 = load volatile i32, ptr @InterruptPending, align 4
  %.not.i = icmp eq i32 %12, 0
  br i1 %.not.i, label %14, label %13, !prof !13

13:                                               ; preds = %9
  tail call void @ProcessInterrupts() #20
  br label %14

14:                                               ; preds = %13, %9
  %15 = load i32, ptr %6, align 4
  %16 = load i32, ptr %7, align 8
  %.not24.i = icmp sgt i32 %15, %16
  br i1 %.not24.i, label %28, label %.preheader.i

.preheader.i:                                     ; preds = %14
  %.031.i = load ptr, ptr %.0.in30.i, align 8
  %.not2632.i = icmp eq ptr %.031.i, null
  br i1 %.not2632.i, label %.loopexit.i, label %.lr.ph.i

.lr.ph.i:                                         ; preds = %.preheader.i, %27
  %.033.i = phi ptr [ %.0.i, %27 ], [ %.031.i, %.preheader.i ]
  %17 = getelementptr inbounds nuw i8, ptr %.033.i, i64 16
  %18 = load ptr, ptr %17, align 8
  %19 = icmp eq ptr %18, %3
  br i1 %19, label %20, label %27

20:                                               ; preds = %.lr.ph.i
  %21 = getelementptr inbounds nuw i8, ptr %.033.i, i64 4
  %22 = load i16, ptr %21, align 4
  %23 = icmp eq i16 %22, %11
  br i1 %23, label %24, label %27

24:                                               ; preds = %20
  %25 = load i32, ptr %.033.i, align 8
  %26 = icmp eq i32 %25, %4
  br i1 %26, label %newarc.exit, label %27

27:                                               ; preds = %24, %20, %.lr.ph.i
  %.0.in.i = getelementptr inbounds nuw i8, ptr %.033.i, i64 24
  %.0.i = load ptr, ptr %.0.in.i, align 8
  %.not26.i = icmp eq ptr %.0.i, null
  br i1 %.not26.i, label %.loopexit.i, label %.lr.ph.i, !llvm.loop !14

28:                                               ; preds = %14
  %.134.i = load ptr, ptr %8, align 8
  %.not2535.i = icmp eq ptr %.134.i, null
  br i1 %.not2535.i, label %.loopexit.i, label %.lr.ph37.i

.lr.ph37.i:                                       ; preds = %28, %39
  %.136.i = phi ptr [ %.1.i, %39 ], [ %.134.i, %28 ]
  %29 = getelementptr inbounds nuw i8, ptr %.136.i, i64 8
  %30 = load ptr, ptr %29, align 8
  %31 = icmp eq ptr %30, %2
  br i1 %31, label %32, label %39

32:                                               ; preds = %.lr.ph37.i
  %33 = getelementptr inbounds nuw i8, ptr %.136.i, i64 4
  %34 = load i16, ptr %33, align 4
  %35 = icmp eq i16 %34, %11
  br i1 %35, label %36, label %39

36:                                               ; preds = %32
  %37 = load i32, ptr %.136.i, align 8
  %38 = icmp eq i32 %37, %4
  br i1 %38, label %newarc.exit, label %39

39:                                               ; preds = %36, %32, %.lr.ph37.i
  %40 = getelementptr inbounds nuw i8, ptr %.136.i, i64 40
  %.1.i = load ptr, ptr %40, align 8
  %.not25.i = icmp eq ptr %.1.i, null
  br i1 %.not25.i, label %.loopexit.i, label %.lr.ph37.i, !llvm.loop !15

.loopexit.i:                                      ; preds = %27, %39, %28, %.preheader.i
  tail call fastcc void @createarc(ptr noundef %0, i32 noundef %4, i16 noundef signext %11, ptr noundef %2, ptr noundef %3)
  br label %newarc.exit

newarc.exit:                                      ; preds = %24, %36, %.loopexit.i
  %.0.in = getelementptr inbounds nuw i8, ptr %.012, i64 24
  %.0 = load ptr, ptr %.0.in, align 8
  %.not = icmp eq ptr %.0, null
  br i1 %.not, label %._crit_edge, label %9, !llvm.loop !132

._crit_edge:                                      ; preds = %newarc.exit, %5
  ret void
}